; Function Attrs: mustprogress nofree nounwind willreturn memory(read) uwtable
define noundef i32 @_ZNK6google8protobuf8internal12ExtensionSet13NumExtensionsEv(ptr nocapture noundef nonnull readonly align 8 dereferenceable(24) %0) local_unnamed_addr #14 align 2 {
  %2 = getelementptr inbounds i8, ptr %0, i64 8
  %3 = load i16, ptr %2, align 8
  %4 = icmp ugt i16 %3, 256
  %5 = getelementptr inbounds i8, ptr %0, i64 16
  %6 = load ptr, ptr %5, align 8
  br i1 %4, label %7, label %16

7:                                                ; preds = %1
  %8 = getelementptr inbounds i8, ptr %6, i64 24
  %9 = load ptr, ptr %8, align 8
  %10 = getelementptr inbounds i8, ptr %6, i64 8
  %.not8.i.i = icmp eq ptr %9, %10
  br i1 %.not8.i.i, label %"_ZNK6google8protobuf8internal12ExtensionSet7ForEachIZNKS2_13NumExtensionsEvE3$_0EET_S5_.exit", label %.lr.ph.i.i

.lr.ph.i.i:                                       ; preds = %7, %.lr.ph.i.i
  %.0 = phi i32 [ %spec.select, %.lr.ph.i.i ], [ 0, %7 ]
  %.sroa.0.09.i.i = phi ptr [ %15, %.lr.ph.i.i ], [ %9, %7 ]
  %11 = getelementptr i8, ptr %.sroa.0.09.i.i, i64 50
  %.val2.i.i = load i8, ptr %11, align 2
  %12 = and i8 %.val2.i.i, 1
  %13 = xor i8 %12, 1
  %14 = zext nneg i8 %13 to i32
  %spec.select = add nuw nsw i32 %.0, %14
  %15 = tail call noundef ptr @_ZSt18_Rb_tree_incrementPSt18_Rb_tree_node_base(ptr noundef nonnull %.sroa.0.09.i.i) #27
  %.not.i.i = icmp eq ptr %15, %10
  br i1 %.not.i.i, label %"_ZNK6google8protobuf8internal12ExtensionSet7ForEachIZNKS2_13NumExtensionsEvE3$_0EET_S5_.exit", label %.lr.ph.i.i, !llvm.loop !15

16:                                               ; preds = %1
  %17 = getelementptr inbounds i8, ptr %0, i64 10
  %18 = load i16, ptr %17, align 2
  %19 = zext i16 %18 to i64
  %20 = getelementptr inbounds %"struct.google::protobuf::internal::ExtensionSet::KeyValue", ptr %6, i64 %19
  %.not7.i.i = icmp eq i16 %18, 0
  br i1 %.not7.i.i, label %"_ZNK6google8protobuf8internal12ExtensionSet7ForEachIZNKS2_13NumExtensionsEvE3$_0EET_S5_.exit", label %.lr.ph.i6.i

.lr.ph.i6.i:                                      ; preds = %16, %.lr.ph.i6.i
  %.2 = phi i32 [ %spec.select4, %.lr.ph.i6.i ], [ 0, %16 ]
  %.08.i.i = phi ptr [ %25, %.lr.ph.i6.i ], [ %6, %16 ]
  %21 = getelementptr i8, ptr %.08.i.i, i64 18
  %.val6.i.i = load i8, ptr %21, align 2
  %22 = and i8 %.val6.i.i, 1
  %23 = xor i8 %22, 1
  %24 = zext nneg i8 %23 to i32
  %spec.select4 = add nuw nsw i32 %.2, %24
  %25 = getelementptr inbounds i8, ptr %.08.i.i, i64 32
  %.not.i8.i = icmp eq ptr %25, %20
  br i1 %.not.i8.i, label %"_ZNK6google8protobuf8internal12ExtensionSet7ForEachIZNKS2_13NumExtensionsEvE3$_0EET_S5_.exit", label %.lr.ph.i6.i, !llvm.loop !16

"_ZNK6google8protobuf8internal12ExtensionSet7ForEachIZNKS2_13NumExtensionsEvE3$_0EET_S5_.exit": ; preds = %.lr.ph.i6.i, %.lr.ph.i.i, %7, %16
  %.4 = phi i32 [ 0, %7 ], [ 0, %16 ], [ %spec.select, %.lr.ph.i.i ], [ %spec.select4, %.lr.ph.i6.i ]
  ret i32 %.4
}